; Function Attrs: mustprogress uwtable
define { ptr, i64 } @_ZN7rocksdb21PackValueAndWriteTimeERKNS_5SliceEmPNSt7__cxx1112basic_stringIcSt11char_traitsIcESaIcEEE(ptr noundef nonnull readonly align 8 captures(none) dereferenceable(16) %0, i64 noundef %1, ptr noundef nonnull %2) local_unnamed_addr #6 personality ptr @__gxx_personality_v0 {
  %4 = alloca i64, align 8
  %5 = load ptr, ptr %0, align 8, !tbaa !259
  %6 = getelementptr inbounds nuw i8, ptr %0, i64 8
  %7 = load i64, ptr %6, align 8, !tbaa !261
  %8 = getelementptr inbounds nuw i8, ptr %2, i64 8
  %9 = load i64, ptr %8, align 8, !tbaa !240
  %10 = tail call noundef nonnull align 8 dereferenceable(32) ptr @_ZNSt7__cxx1112basic_stringIcSt11char_traitsIcESaIcEE10_M_replaceEmmPKcm(ptr noundef nonnull align 8 dereferenceable(32) %2, i64 noundef 0, i64 noundef %9, ptr noundef %5, i64 noundef %7)
  call void @llvm.lifetime.start.p0(i64 8, ptr nonnull %4)
  store i64 %1, ptr %4, align 8, !tbaa !113
  %11 = load i64, ptr %8, align 8, !tbaa !240
  %12 = and i64 %11, -8
  %13 = icmp eq i64 %12, 4611686018427387896
  br i1 %13, label %14, label %_ZN7rocksdb10PutFixed64EPNSt7__cxx1112basic_stringIcSt11char_traitsIcESaIcEEEm.exit

14:                                               ; preds = %3
  tail call void @_ZSt20__throw_length_errorPKc(ptr noundef nonnull @.str.5) #25
  unreachable

_ZN7rocksdb10PutFixed64EPNSt7__cxx1112basic_stringIcSt11char_traitsIcESaIcEEEm.exit: ; preds = %3
  %15 = call noundef nonnull align 8 dereferenceable(32) ptr @_ZNSt7__cxx1112basic_stringIcSt11char_traitsIcESaIcEE9_M_appendEPKcm(ptr noundef nonnull align 8 dereferenceable(32) %2, ptr noundef nonnull %4, i64 noundef 8)
  call void @llvm.lifetime.end.p0(i64 8, ptr nonnull %4)
  %16 = load ptr, ptr %2, align 8, !tbaa !250
  %17 = load i64, ptr %8, align 8, !tbaa !240
  %.fca.0.insert = insertvalue { ptr, i64 } poison, ptr %16, 0
  %.fca.1.insert = insertvalue { ptr, i64 } %.fca.0.insert, i64 %17, 1
  ret { ptr, i64 } %.fca.1.insert
}